target datalayout = "e-m:e-p270:32:32-p271:32:32-p272:64:64-i64:64-i128:128-f80:128-n8:16:32:64-S128"
target triple = "x86_64-pc-linux-gnu"

%class.ezSAT = type <{ ptr, i8, i8, i8, [5 x i8], %"class.std::map", %"class.std::vector", %"class.std::map.3", %"class.std::vector.9", i8, [3 x i8], i32, i32, [4 x i8], %"class.std::vector.14", %"class.std::vector.14", %"class.std::vector.19", %"class.std::vector.19", i32, i8, [3 x i8], i32, [4 x i8] }>
%"class.std::map" = type { %"class.std::_Rb_tree" }
%"class.std::_Rb_tree" = type { %"struct.std::_Rb_tree<std::__cxx11::basic_string<char>, std::pair<const std::__cxx11::basic_string<char>, int>, std::_Select1st<std::pair<const std::__cxx11::basic_string<char>, int>>, std::less<std::__cxx11::basic_string<char>>>::_Rb_tree_impl" }
%"struct.std::_Rb_tree<std::__cxx11::basic_string<char>, std::pair<const std::__cxx11::basic_string<char>, int>, std::_Select1st<std::pair<const std::__cxx11::basic_string<char>, int>>, std::less<std::__cxx11::basic_string<char>>>::_Rb_tree_impl" = type { [8 x i8], %"struct.std::_Rb_tree_header" }
%"struct.std::_Rb_tree_header" = type { %"struct.std::_Rb_tree_node_base", i64 }
%"struct.std::_Rb_tree_node_base" = type { i32, ptr, ptr, ptr }
%"class.std::vector" = type { %"struct.std::_Vector_base" }
%"struct.std::_Vector_base" = type { %"struct.std::_Vector_base<std::__cxx11::basic_string<char>, std::allocator<std::__cxx11::basic_string<char>>>::_Vector_impl" }
%"struct.std::_Vector_base<std::__cxx11::basic_string<char>, std::allocator<std::__cxx11::basic_string<char>>>::_Vector_impl" = type { %"struct.std::_Vector_base<std::__cxx11::basic_string<char>, std::allocator<std::__cxx11::basic_string<char>>>::_Vector_impl_data" }
%"struct.std::_Vector_base<std::__cxx11::basic_string<char>, std::allocator<std::__cxx11::basic_string<char>>>::_Vector_impl_data" = type { ptr, ptr, ptr }
%"class.std::map.3" = type { %"class.std::_Rb_tree.4" }
%"class.std::_Rb_tree.4" = type { %"struct.std::_Rb_tree<std::pair<ezSAT::OpId, std::vector<int>>, std::pair<const std::pair<ezSAT::OpId, std::vector<int>>, int>, std::_Select1st<std::pair<const std::pair<ezSAT::OpId, std::vector<int>>, int>>, std::less<std::pair<ezSAT::OpId, std::vector<int>>>>::_Rb_tree_impl" }
%"struct.std::_Rb_tree<std::pair<ezSAT::OpId, std::vector<int>>, std::pair<const std::pair<ezSAT::OpId, std::vector<int>>, int>, std::_Select1st<std::pair<const std::pair<ezSAT::OpId, std::vector<int>>, int>>, std::less<std::pair<ezSAT::OpId, std::vector<int>>>>::_Rb_tree_impl" = type { [8 x i8], %"struct.std::_Rb_tree_header" }
%"class.std::vector.9" = type { %"struct.std::_Vector_base.10" }
%"struct.std::_Vector_base.10" = type { %"struct.std::_Vector_base<std::pair<ezSAT::OpId, std::vector<int>>, std::allocator<std::pair<ezSAT::OpId, std::vector<int>>>>::_Vector_impl" }
%"struct.std::_Vector_base<std::pair<ezSAT::OpId, std::vector<int>>, std::allocator<std::pair<ezSAT::OpId, std::vector<int>>>>::_Vector_impl" = type { %"struct.std::_Vector_base<std::pair<ezSAT::OpId, std::vector<int>>, std::allocator<std::pair<ezSAT::OpId, std::vector<int>>>>::_Vector_impl_data" }
%"struct.std::_Vector_base<std::pair<ezSAT::OpId, std::vector<int>>, std::allocator<std::pair<ezSAT::OpId, std::vector<int>>>>::_Vector_impl_data" = type { ptr, ptr, ptr }
%"class.std::vector.14" = type { %"struct.std::_Vector_base.15" }
%"struct.std::_Vector_base.15" = type { %"struct.std::_Vector_base<int, std::allocator<int>>::_Vector_impl" }
%"struct.std::_Vector_base<int, std::allocator<int>>::_Vector_impl" = type { %"struct.std::_Vector_base<int, std::allocator<int>>::_Vector_impl_data" }
%"struct.std::_Vector_base<int, std::allocator<int>>::_Vector_impl_data" = type { ptr, ptr, ptr }
%"class.std::vector.19" = type { %"struct.std::_Vector_base.20" }
%"struct.std::_Vector_base.20" = type { %"struct.std::_Vector_base<std::vector<int>, std::allocator<std::vector<int>>>::_Vector_impl" }
%"struct.std::_Vector_base<std::vector<int>, std::allocator<std::vector<int>>>::_Vector_impl" = type { %"struct.std::_Vector_base<std::vector<int>, std::allocator<std::vector<int>>>::_Vector_impl_data" }
%"struct.std::_Vector_base<std::vector<int>, std::allocator<std::vector<int>>>::_Vector_impl_data" = type { ptr, ptr, ptr }
%"class.__gnu_cxx::__normal_iterator" = type { ptr }

; Function Attrs: mustprogress nounwind uwtable
define linkonce_odr noundef nonnull align 8 dereferenceable(8) ptr @_ZNK9__gnu_cxx17__normal_iteratorIPKiSt6vectorIiSaIiEEE4baseEv(ptr noundef nonnull align 8 dereferenceable(8) %0) #1 comdat align 2 {
  %2 = alloca ptr, align 8
  store ptr %0, ptr %2, align 8, !tbaa !102
  %3 = load ptr, ptr %2, align 8
  %4 = getelementptr inbounds nuw %"class.__gnu_cxx::__normal_iterator", ptr %3, i32 0, i32 0
  ret ptr %4
}

; Function Attrs: mustprogress nounwind uwtable
define linkonce_odr void @_ZN9__gnu_cxx17__normal_iteratorIPKiSt6vectorIiSaIiEEEC2ERKS2_(ptr noundef nonnull align 8 dereferenceable(8) %0, ptr noundef nonnull align 8 dereferenceable(8) %1) unnamed_addr #1 comdat align 2 {
  %3 = alloca ptr, align 8
  %4 = alloca ptr, align 8
  store ptr %0, ptr %3, align 8, !tbaa !102
  store ptr %1, ptr %4, align 8, !tbaa !338
  %5 = load ptr, ptr %3, align 8
  %6 = getelementptr inbounds nuw %"class.__gnu_cxx::__normal_iterator", ptr %5, i32 0, i32 0
  %7 = load ptr, ptr %4, align 8, !tbaa !338
  %8 = load ptr, ptr %7, align 8, !tbaa !100
  store ptr %8, ptr %6, align 8, !tbaa !104
  ret void
}

; Function Attrs: mustprogress nounwind uwtable
define linkonce_odr noundef nonnull align 8 dereferenceable(8) ptr @_ZN9__gnu_cxx17__normal_iteratorIPKiSt6vectorIiSaIiEEEppEv(ptr noundef nonnull align 8 dereferenceable(8) %0) #1 comdat align 2 {
  %2 = alloca ptr, align 8
  store ptr %0, ptr %2, align 8, !tbaa !102
  %3 = load ptr, ptr %2, align 8
  %4 = getelementptr inbounds nuw %"class.__gnu_cxx::__normal_iterator", ptr %3, i32 0, i32 0
  %5 = load ptr, ptr %4, align 8, !tbaa !104
  %6 = getelementptr inbounds nuw i32, ptr %5, i32 1
  store ptr %6, ptr %4, align 8, !tbaa !104
  ret ptr %3
}

; Function Attrs: mustprogress nounwind uwtable
define linkonce_odr noundef nonnull align 4 dereferenceable(4) ptr @_ZNK9__gnu_cxx17__normal_iteratorIPKiSt6vectorIiSaIiEEEdeEv(ptr noundef nonnull align 8 dereferenceable(8) %0) #1 comdat align 2 {
  %2 = alloca ptr, align 8
  store ptr %0, ptr %2, align 8, !tbaa !102
  %3 = load ptr, ptr %2, align 8
  %4 = getelementptr inbounds nuw %"class.__gnu_cxx::__normal_iterator", ptr %3, i32 0, i32 0
  %5 = load ptr, ptr %4, align 8, !tbaa !104
  ret ptr %5
}

; Function Attrs: inlinehint mustprogress nounwind uwtable
define linkonce_odr noundef zeroext i1 @_ZN9__gnu_cxxneIPKiSt6vectorIiSaIiEEEEbRKNS_17__normal_iteratorIT_T0_EESB_(ptr noundef nonnull align 8 dereferenceable(8) %0, ptr noundef nonnull align 8 dereferenceable(8) %1) #4 comdat {
  %3 = alloca ptr, align 8
  %4 = alloca ptr, align 8
  store ptr %0, ptr %3, align 8, !tbaa !102
  store ptr %1, ptr %4, align 8, !tbaa !102
  %5 = load ptr, ptr %3, align 8, !tbaa !102
  %6 = call noundef nonnull align 8 dereferenceable(8) ptr @_ZNK9__gnu_cxx17__normal_iteratorIPKiSt6vectorIiSaIiEEE4baseEv(ptr noundef nonnull align 8 dereferenceable(8) %5) #18
  %7 = load ptr, ptr %6, align 8, !tbaa !100
  %8 = load ptr, ptr %4, align 8, !tbaa !102
  %9 = call noundef nonnull align 8 dereferenceable(8) ptr @_ZNK9__gnu_cxx17__normal_iteratorIPKiSt6vectorIiSaIiEEE4baseEv(ptr noundef nonnull align 8 dereferenceable(8) %8) #18
  %10 = load ptr, ptr %9, align 8, !tbaa !100
  %11 = icmp ne ptr %7, %10
  ret i1 %11
}

; Function Attrs: mustprogress nounwind uwtable
define linkonce_odr ptr @_ZNKSt6vectorIiSaIiEE3endEv(ptr noundef nonnull align 8 dereferenceable(24) %0) #1 comdat align 2 {
  %2 = alloca %"class.__gnu_cxx::__normal_iterator", align 8
  %3 = alloca ptr, align 8
  store ptr %0, ptr %3, align 8, !tbaa !68
  %4 = load ptr, ptr %3, align 8
  %5 = getelementptr inbounds nuw %"struct.std::_Vector_base.15", ptr %4, i32 0, i32 0
  %6 = getelementptr inbounds nuw %"struct.std::_Vector_base<int, std::allocator<int>>::_Vector_impl_data", ptr %5, i32 0, i32 1
  call void @_ZN9__gnu_cxx17__normal_iteratorIPKiSt6vectorIiSaIiEEEC2ERKS2_(ptr noundef nonnull align 8 dereferenceable(8) %2, ptr noundef nonnull align 8 dereferenceable(8) %6) #18
  %7 = getelementptr inbounds nuw %"class.__gnu_cxx::__normal_iterator", ptr %2, i32 0, i32 0
  %8 = load ptr, ptr %7, align 8
  ret ptr %8
}

; Function Attrs: mustprogress nounwind uwtable
define linkonce_odr ptr @_ZNKSt6vectorIiSaIiEE5beginEv(ptr noundef nonnull align 8 dereferenceable(24) %0) #1 comdat align 2 {
  %2 = alloca %"class.__gnu_cxx::__normal_iterator", align 8
  %3 = alloca ptr, align 8
  store ptr %0, ptr %3, align 8, !tbaa !68
  %4 = load ptr, ptr %3, align 8
  %5 = getelementptr inbounds nuw %"struct.std::_Vector_base.15", ptr %4, i32 0, i32 0
  %6 = getelementptr inbounds nuw %"struct.std::_Vector_base<int, std::allocator<int>>::_Vector_impl_data", ptr %5, i32 0, i32 0
  call void @_ZN9__gnu_cxx17__normal_iteratorIPKiSt6vectorIiSaIiEEEC2ERKS2_(ptr noundef nonnull align 8 dereferenceable(8) %2, ptr noundef nonnull align 8 dereferenceable(8) %6) #18
  %7 = getelementptr inbounds nuw %"class.__gnu_cxx::__normal_iterator", ptr %2, i32 0, i32 0
  %8 = load ptr, ptr %7, align 8
  ret ptr %8
}

; Function Attrs: mustprogress uwtable
define noundef i32 @_ZN5ezSAT11bind_cnf_orERKSt6vectorIiSaIiEE(ptr noundef nonnull align 8 dereferenceable(284) %0, ptr noundef nonnull align 8 dereferenceable(24) %1) #0 align 2 {
  %3 = alloca ptr, align 8
  %4 = alloca ptr, align 8
  %5 = alloca i32, align 4
  %6 = alloca ptr, align 8
  %7 = alloca %"class.__gnu_cxx::__normal_iterator", align 8
  %8 = alloca %"class.__gnu_cxx::__normal_iterator", align 8
  %9 = alloca i32, align 4
  store ptr %0, ptr %3, align 8, !tbaa !6
  store ptr %1, ptr %4, align 8, !tbaa !68
  %10 = load ptr, ptr %3, align 8
  call void @llvm.lifetime.start.p0(i64 4, ptr %5) #18
  %11 = getelementptr inbounds nuw %class.ezSAT, ptr %10, i32 0, i32 11
  %12 = load i32, ptr %11, align 4, !tbaa !56
  %13 = add nsw i32 %12, 1
  store i32 %13, ptr %11, align 4, !tbaa !56
  store i32 %13, ptr %5, align 4, !tbaa !72
  %14 = load ptr, ptr %4, align 8, !tbaa !68
  %15 = load i32, ptr %5, align 4, !tbaa !72
  %16 = sub nsw i32 0, %15
  call void @_ZN5ezSAT10add_clauseERKSt6vectorIiSaIiEEbiii(ptr noundef nonnull align 8 dereferenceable(284) %10, ptr noundef nonnull align 8 dereferenceable(24) %14, i1 noundef zeroext true, i32 noundef %16, i32 noundef 0, i32 noundef 0)
  call void @llvm.lifetime.start.p0(i64 8, ptr %6) #18
  %17 = load ptr, ptr %4, align 8, !tbaa !68
  store ptr %17, ptr %6, align 8, !tbaa !68
  call void @llvm.lifetime.start.p0(i64 8, ptr %7) #18
  %18 = load ptr, ptr %6, align 8, !tbaa !68
  %19 = call ptr @_ZNKSt6vectorIiSaIiEE5beginEv(ptr noundef nonnull align 8 dereferenceable(24) %18) #18
  %20 = getelementptr inbounds nuw %"class.__gnu_cxx::__normal_iterator", ptr %7, i32 0, i32 0
  store ptr %19, ptr %20, align 8
  call void @llvm.lifetime.start.p0(i64 8, ptr %8) #18
  %21 = load ptr, ptr %6, align 8, !tbaa !68
  %22 = call ptr @_ZNKSt6vectorIiSaIiEE3endEv(ptr noundef nonnull align 8 dereferenceable(24) %21) #18
  %23 = getelementptr inbounds nuw %"class.__gnu_cxx::__normal_iterator", ptr %8, i32 0, i32 0
  store ptr %22, ptr %23, align 8
  br label %24

24:                                               ; preds = %33, %2
  %25 = call noundef zeroext i1 @_ZN9__gnu_cxxneIPKiSt6vectorIiSaIiEEEEbRKNS_17__normal_iteratorIT_T0_EESB_(ptr noundef nonnull align 8 dereferenceable(8) %7, ptr noundef nonnull align 8 dereferenceable(8) %8) #18
  br i1 %25, label %27, label %26

26:                                               ; preds = %24
  call void @llvm.lifetime.end.p0(i64 8, ptr %8) #18
  call void @llvm.lifetime.end.p0(i64 8, ptr %7) #18
  call void @llvm.lifetime.end.p0(i64 8, ptr %6) #18
  br label %35

27:                                               ; preds = %24
  call void @llvm.lifetime.start.p0(i64 4, ptr %9) #18
  %28 = call noundef nonnull align 4 dereferenceable(4) ptr @_ZNK9__gnu_cxx17__normal_iteratorIPKiSt6vectorIiSaIiEEEdeEv(ptr noundef nonnull align 8 dereferenceable(8) %7) #18
  %29 = load i32, ptr %28, align 4, !tbaa !72
  store i32 %29, ptr %9, align 4, !tbaa !72
  %30 = load i32, ptr %5, align 4, !tbaa !72
  %31 = load i32, ptr %9, align 4, !tbaa !72
  %32 = sub nsw i32 0, %31
  call void @_ZN5ezSAT10add_clauseEiii(ptr noundef nonnull align 8 dereferenceable(284) %10, i32 noundef %30, i32 noundef %32, i32 noundef 0)
  call void @llvm.lifetime.end.p0(i64 4, ptr %9) #18
  br label %33

33:                                               ; preds = %27
  %34 = call noundef nonnull align 8 dereferenceable(8) ptr @_ZN9__gnu_cxx17__normal_iteratorIPKiSt6vectorIiSaIiEEEppEv(ptr noundef nonnull align 8 dereferenceable(8) %7) #18
  br label %24

35:                                               ; preds = %26
  %36 = load i32, ptr %5, align 4, !tbaa !72
  call void @llvm.lifetime.end.p0(i64 4, ptr %5) #18
  ret i32 %36
}